; Function Attrs: nounwind uwtable
define hidden i32 @mbedtls_mpi_fill_random(ptr noundef %0, i64 noundef %1, ptr noundef %2, ptr noundef %3) local_unnamed_addr #0 {
  %5 = lshr i64 %1, 3
  %6 = and i64 %1, 7
  %7 = icmp ne i64 %6, 0
  %8 = zext i1 %7 to i64
  %9 = add nuw nsw i64 %5, %8
  %10 = icmp eq i64 %9, 0
  br i1 %10, label %11, label %23

11:                                               ; preds = %4
  %12 = icmp eq ptr %0, null
  br i1 %12, label %42, label %13

13:                                               ; preds = %11
  %14 = load ptr, ptr %0, align 8, !tbaa !12
  %.not.i.i = icmp eq ptr %14, null
  br i1 %.not.i.i, label %20, label %15

15:                                               ; preds = %13
  %16 = getelementptr inbounds nuw i8, ptr %0, i64 10
  %17 = load i16, ptr %16, align 2, !tbaa !3
  %18 = zext i16 %17 to i64
  %19 = shl nuw nsw i64 %18, 3
  tail call void @mbedtls_zeroize_and_free(ptr noundef nonnull %14, i64 noundef %19) #16
  br label %20

20:                                               ; preds = %15, %13
  %21 = getelementptr inbounds nuw i8, ptr %0, i64 8
  store i16 1, ptr %21, align 8, !tbaa !10
  %22 = getelementptr inbounds nuw i8, ptr %0, i64 10
  store i16 0, ptr %22, align 2, !tbaa !3
  store ptr null, ptr %0, align 8, !tbaa !12
  br label %42

23:                                               ; preds = %4
  %24 = getelementptr inbounds nuw i8, ptr %0, i64 10
  %25 = load i16, ptr %24, align 2, !tbaa !3
  %26 = zext i16 %25 to i64
  %27 = icmp eq i64 %9, %26
  %28 = load ptr, ptr %0, align 8, !tbaa !12
  br i1 %27, label %29, label %32

29:                                               ; preds = %23
  %30 = shl nuw nsw i64 %9, 3
  tail call void @llvm.memset.p0.i64(ptr align 8 %28, i8 0, i64 %30, i1 false)
  %31 = getelementptr inbounds nuw i8, ptr %0, i64 8
  store i16 1, ptr %31, align 8, !tbaa !10
  br label %42

32:                                               ; preds = %23
  %.not.i11.i = icmp eq ptr %28, null
  br i1 %.not.i11.i, label %mbedtls_mpi_free.exit12.i, label %33

33:                                               ; preds = %32
  %34 = shl nuw nsw i64 %26, 3
  tail call void @mbedtls_zeroize_and_free(ptr noundef nonnull %28, i64 noundef %34) #16
  br label %mbedtls_mpi_free.exit12.i

mbedtls_mpi_free.exit12.i:                        ; preds = %33, %32
  %35 = getelementptr inbounds nuw i8, ptr %0, i64 8
  store i16 1, ptr %35, align 8, !tbaa !10
  store i16 0, ptr %24, align 2, !tbaa !3
  store ptr null, ptr %0, align 8, !tbaa !12
  %36 = icmp samesign ugt i64 %9, 10000
  br i1 %36, label %mbedtls_mpi_resize_clear.exit, label %37

37:                                               ; preds = %mbedtls_mpi_free.exit12.i
  %38 = tail call noalias ptr @calloc(i64 noundef range(i64 0, 2305843009213693953) %9, i64 noundef 8) #17
  %39 = icmp eq ptr %38, null
  br i1 %39, label %mbedtls_mpi_resize_clear.exit, label %40

40:                                               ; preds = %37
  %41 = trunc nuw nsw i64 %9 to i16
  store i16 %41, ptr %24, align 2, !tbaa !3
  store ptr %38, ptr %0, align 8, !tbaa !12
  br label %42

42:                                               ; preds = %29, %11, %20, %40
  %43 = icmp eq i64 %1, 0
  br i1 %43, label %mbedtls_mpi_resize_clear.exit, label %44

44:                                               ; preds = %42
  %45 = load ptr, ptr %0, align 8, !tbaa !12
  %46 = getelementptr inbounds nuw i8, ptr %0, i64 10
  %47 = load i16, ptr %46, align 2, !tbaa !3
  %48 = zext i16 %47 to i64
  %49 = tail call i32 @mbedtls_mpi_core_fill_random(ptr noundef %45, i64 noundef %48, i64 noundef %1, ptr noundef %2, ptr noundef %3) #16
  br label %mbedtls_mpi_resize_clear.exit

mbedtls_mpi_resize_clear.exit:                    ; preds = %37, %mbedtls_mpi_free.exit12.i, %44, %42
  %.0 = phi i32 [ 0, %42 ], [ %49, %44 ], [ -16, %mbedtls_mpi_free.exit12.i ], [ -16, %37 ]
  ret i32 %.0
}